Certificate:
    Data:
        Version: 3 (0x2)
        Serial Number: 4096 (0x1000)
    Signature Algorithm: md5WithRSAEncryption
        Issuer: C=US, ST=Utah, L=Salt Lake City, O=University of Utah, OU=School of Computing, CN=Authority/emailAddress=authority@mail.com
        Validity
            Not Before: Mar 23 03:57:29 2023 GMT
            Not After : Mar 22 03:57:29 2024 GMT
        Subject: C=US, ST=Utah, O=University of Utah, OU=School of Computing, CN=Server/emailAddress=server@mail.com
        Subject Public Key Info:
            Public Key Algorithm: rsaEncryption
                RSA Public-Key: (4096 bit)
                Modulus:
                    00:c2:32:7c:b4:3c:aa:46:46:eb:8d:31:23:0c:d2:
                    14:8f:e3:ce:40:6c:9d:c4:b2:86:5f:a7:45:29:1c:
                    d5:8a:a4:2f:59:54:0e:ab:fb:0e:2b:33:52:83:e9:
                    73:e6:e1:a4:4a:3c:88:33:aa:eb:fd:d6:e7:1e:3f:
                    b2:41:fd:cc:f8:5e:ac:c7:ad:a6:9c:d8:e3:e6:ee:
                    2a:a9:0e:90:45:91:ee:83:53:03:0d:bc:42:48:34:
                    de:3a:28:ed:4f:35:81:1d:6f:1b:f6:38:d6:2f:f6:
                    8e:96:73:84:37:d9:6d:a4:54:63:ec:af:b6:f1:b1:
                    96:32:4a:0a:59:7b:06:b7:a8:4e:b5:5b:c0:c5:f7:
                    bd:12:7b:85:67:2f:9c:f6:08:d8:ea:77:0c:83:ad:
                    79:0b:fd:5c:05:53:92:8f:a8:b1:f6:d9:aa:e9:e6:
                    9d:cd:ff:7c:46:04:25:fa:2c:dd:59:79:89:2e:ea:
                    e6:34:9e:c5:65:8c:a5:7e:2a:14:d3:20:3e:4b:2f:
                    c6:77:c6:db:af:13:20:11:b5:1d:ec:df:7b:51:f1:
                    55:4b:4c:b4:93:d0:33:d0:be:37:78:95:dd:9d:6b:
                    9a:86:b2:ae:b1:d1:d7:f2:e9:22:e4:de:ff:41:83:
                    d0:e1:d8:b8:05:3d:e9:d9:b5:6f:36:a5:08:4c:d4:
                    2a:6e:74:c2:f6:0c:8c:38:09:8e:c9:df:d0:21:cd:
                    ab:29:b0:f2:48:98:43:1c:c6:b4:28:cf:19:97:08:
                    14:39:ef:c3:9f:d7:0a:88:26:43:d5:54:ba:6b:de:
                    5e:a3:a5:68:d5:66:b2:be:01:9f:17:d9:48:31:81:
                    82:8d:b8:3c:1d:0f:89:eb:93:2d:65:b8:c2:d6:ca:
                    2e:97:d7:b3:0a:dd:7b:fb:f5:66:1d:0e:12:7e:2f:
                    61:ac:f6:83:02:04:63:73:98:77:6b:77:a0:1d:be:
                    31:b9:26:c4:4e:9d:e2:d5:48:71:51:64:48:69:45:
                    5a:13:29:34:f7:db:55:20:6b:1d:04:d3:d4:52:fa:
                    85:0f:8f:f6:90:24:e7:c4:dd:55:f9:38:83:2c:5d:
                    1c:3b:74:ed:ef:1a:7b:2a:06:6c:05:76:96:44:72:
                    ee:60:50:ce:25:88:d7:f8:34:1f:5c:25:97:e4:f1:
                    22:1b:1d:ee:1b:74:f3:b9:55:68:b4:b4:8a:7c:15:
                    7a:11:5c:fd:3a:97:af:6e:d3:d0:63:e7:98:8c:53:
                    f9:86:1a:15:4a:b0:d0:21:f5:8e:e1:aa:c7:0e:27:
                    30:fb:4d:ab:48:dc:b3:79:3f:94:ed:66:aa:32:d2:
                    c3:4a:0b:ea:02:0c:15:fd:a3:09:f4:dd:ac:ce:94:
                    61:9a:57
                Exponent: 65537 (0x10001)
        X509v3 extensions:
            X509v3 Basic Constraints: 
                CA:FALSE
            Netscape Comment: 
                OpenSSL Generated Certificate
            X509v3 Subject Key Identifier: 
                55:4E:87:D1:45:97:16:6A:4C:99:09:91:15:65:3E:54:50:45:59:52
            X509v3 Authority Key Identifier: 
                DirName:/C=US/ST=Utah/L=Salt Lake City/O=University of Utah/OU=School of Computing/CN=Authority/emailAddress=authority@mail.com
                serial:D8:26:70:30:B7:77:EA:F4

    Signature Algorithm: md5WithRSAEncryption
         56:a5:5c:02:15:12:fb:75:6e:67:e2:a0:62:96:59:3f:d3:67:
         75:cb:ea:0d:7c:8f:cb:6d:39:fb:f2:47:6c:15:4a:8f:1d:6b:
         c7:a0:97:70:8e:31:e5:12:69:30:b1:64:e8:36:44:06:bc:f0:
         5e:c2:eb:d3:40:17:19:44:57:45:37:51:51:5b:e3:01:fe:86:
         eb:5d:28:c6:59:40:a6:40:40:79:a3:09:03:20:93:e2:d0:f3:
         59:ba:59:db:2e:18:2a:62:3d:0e:94:b6:66:27:63:1d:f3:55:
         6f:3c:d6:25:ee:b7:66:e0:56:4b:7a:d5:0c:97:56:fd:b7:c2:
         d7:25:94:53:47:6b:17:42:ea:84:6a:b5:ae:a4:27:f8:20:87:
         d9:70:92:61:75:e4:d7:77:36:8c:24:41:68:c1:7f:32:ff:d0:
         b7:cd:47:b4:e5:6f:a4:48:69:2f:56:a8:7b:27:18:49:59:62:
         5f:84:95:31:35:00:41:89:ee:90:45:85:7c:69:02:50:ff:35:
         75:c7:b2:bd:e3:60:40:7b:8f:b7:c4:c7:43:4e:3d:8e:ab:c5:
         16:26:a4:a8:f3:1f:a6:9f:13:78:83:00:33:72:0b:92:6e:1b:
         d8:55:1c:f6:30:f5:6d:39:bf:c6:bf:87:5c:6a:ca:c7:99:53:
         31:59:ff:77:f0:e6:18:c8:de:48:40:b4:30:89:23:05:f3:b7:
         d7:f1:d7:8d:49:90:ce:41:c1:93:13:2e:85:2d:6b:d8:75:6b:
         7c:1b:4c:69:cc:70:37:45:73:67:77:fb:ba:6f:dc:fe:53:72:
         9e:89:45:c1:c0:c8:0f:29:e9:eb:8e:31:5b:e1:c3:97:d5:4c:
         42:ff:54:17:08:a3:6a:ba:af:e2:3e:d1:af:49:28:29:71:ea:
         cf:37:db:30:bf:ff:3d:96:8a:d8:25:5e:27:56:37:7c:03:d8:
         5e:0d:b2:43:7d:e6:25:da:6b:b1:64:d5:ba:1a:74:f0:a8:1b:
         ad:09:0b:63:93:95:58:b2:7d:24:ad:ea:fa:62:57:6c:c2:64:
         a7:d3:d2:f5:ad:68:68:0a:d8:9c:77:4c:93:74:75:78:eb:98:
         88:e1:cf:bc:c2:c4:d8:8b:47:24:83:c1:cb:a4:22:41:ba:1e:
         fc:9d:22:4e:b0:d9:99:2e:92:fa:b4:d4:e7:e0:4e:e9:b4:61:
         bb:1a:d6:63:46:cf:87:a5:d8:b7:e0:0c:a7:27:af:9b:8b:1f:
         35:07:10:a6:1d:c5:4a:e2:f4:d6:5b:ea:52:6c:d8:8f:bb:52:
         77:ed:a4:38:40:46:96:48:02:88:bc:b5:a6:05:6a:b3:c4:ef:
         09:83:a7:61:c1:9b:f2:fa
-----BEGIN CERTIFICATE-----
MIIG1DCCBLygAwIBAgICEAAwDQYJKoZIhvcNAQEEBQAwgacxCzAJBgNVBAYTAlVT
MQ0wCwYDVQQIDARVdGFoMRcwFQYDVQQHDA5TYWx0IExha2UgQ2l0eTEbMBkGA1UE
CgwSVW5pdmVyc2l0eSBvZiBVdGFoMRwwGgYDVQQLDBNTY2hvb2wgb2YgQ29tcHV0
aW5nMRIwEAYDVQQDDAlBdXRob3JpdHkxITAfBgkqhkiG9w0BCQEWEmF1dGhvcml0
eUBtYWlsLmNvbTAeFw0yMzAzMjMwMzU3MjlaFw0yNDAzMjIwMzU3MjlaMIGIMQsw
CQYDVQQGEwJVUzENMAsGA1UECAwEVXRhaDEbMBkGA1UECgwSVW5pdmVyc2l0eSBv
ZiBVdGFoMRwwGgYDVQQLDBNTY2hvb2wgb2YgQ29tcHV0aW5nMQ8wDQYDVQQDDAZT
ZXJ2ZXIxHjAcBgkqhkiG9w0BCQEWD3NlcnZlckBtYWlsLmNvbTCCAiIwDQYJKoZI
hvcNAQEBBQADggIPADCCAgoCggIBAMIyfLQ8qkZG640xIwzSFI/jzkBsncSyhl+n
RSkc1YqkL1lUDqv7DiszUoPpc+bhpEo8iDOq6/3W5x4/skH9zPherMetppzY4+bu
KqkOkEWR7oNTAw28Qkg03joo7U81gR1vG/Y41i/2jpZzhDfZbaRUY+yvtvGxljJK
Cll7BreoTrVbwMX3vRJ7hWcvnPYI2Op3DIOteQv9XAVTko+osfbZqunmnc3/fEYE
Jfos3Vl5iS7q5jSexWWMpX4qFNMgPksvxnfG268TIBG1Hezfe1HxVUtMtJPQM9C+
N3iV3Z1rmoayrrHR1/LpIuTe/0GD0OHYuAU96dm1bzalCEzUKm50wvYMjDgJjsnf
0CHNqymw8kiYQxzGtCjPGZcIFDnvw5/XCogmQ9VUumveXqOlaNVmsr4BnxfZSDGB
go24PB0PieuTLWW4wtbKLpfXswrde/v1Zh0OEn4vYaz2gwIEY3OYd2t3oB2+Mbkm
xE6d4tVIcVFkSGlFWhMpNPfbVSBrHQTT1FL6hQ+P9pAk58TdVfk4gyxdHDt07e8a
eyoGbAV2lkRy7mBQziWI1/g0H1wll+TxIhsd7ht087lVaLS0inwVehFc/TqXr27T
0GPnmIxT+YYaFUqw0CH1juGqxw4nMPtNq0jcs3k/lO1mqjLSw0oL6gIMFf2jCfTd
rM6UYZpXAgMBAAGjggElMIIBITAJBgNVHRMEAjAAMCwGCWCGSAGG+EIBDQQfFh1P
cGVuU1NMIEdlbmVyYXRlZCBDZXJ0aWZpY2F0ZTAdBgNVHQ4EFgQUVU6H0UWXFmpM
mQmRFWU+VFBFWVIwgcYGA1UdIwSBvjCBu6GBraSBqjCBpzELMAkGA1UEBhMCVVMx
DTALBgNVBAgMBFV0YWgxFzAVBgNVBAcMDlNhbHQgTGFrZSBDaXR5MRswGQYDVQQK
DBJVbml2ZXJzaXR5IG9mIFV0YWgxHDAaBgNVBAsME1NjaG9vbCBvZiBDb21wdXRp
bmcxEjAQBgNVBAMMCUF1dGhvcml0eTEhMB8GCSqGSIb3DQEJARYSYXV0aG9yaXR5
QG1haWwuY29tggkA2CZwMLd36vQwDQYJKoZIhvcNAQEEBQADggIBAFalXAIVEvt1
bmfioGKWWT/TZ3XL6g18j8ttOfvyR2wVSo8da8egl3COMeUSaTCxZOg2RAa88F7C
69NAFxlEV0U3UVFb4wH+hutdKMZZQKZAQHmjCQMgk+LQ81m6WdsuGCpiPQ6UtmYn
Yx3zVW881iXut2bgVkt61QyXVv23wtcllFNHaxdC6oRqta6kJ/ggh9lwkmF15Nd3
NowkQWjBfzL/0LfNR7Tlb6RIaS9WqHsnGElZYl+ElTE1AEGJ7pBFhXxpAlD/NXXH
sr3jYEB7j7fEx0NOPY6rxRYmpKjzH6afE3iDADNyC5JuG9hVHPYw9W05v8a/h1xq
yseZUzFZ/3fw5hjI3khAtDCJIwXzt9fx141JkM5BwZMTLoUta9h1a3wbTGnMcDdF
c2d3+7pv3P5Tcp6JRcHAyA8p6euOMVvhw5fVTEL/VBcIo2q6r+I+0a9JKClx6s83
2zC//z2WitglXidWN3wD2F4NskN95iXaa7Fk1boadPCoG60JC2OTlViyfSSt6vpi
V2zCZKfT0vWtaGgK2Jx3TJN0dXjrmIjhz7zCxNiLRySDwcukIkG6HvydIk6w2Zku
kvq01OfgTum0Ybsa1mNGz4el2LfgDKcnr5uLHzUHEKYdxUri9NZb6lJs2I+7Unft
pDhARpZIAoi8taYFarPE7wmDp2HBm/L6
-----END CERTIFICATE-----
