Certificate:
    Data:
        Version: 3 (0x2)
        Serial Number: 4097 (0x1001)
    Signature Algorithm: md5WithRSAEncryption
        Issuer: C=US, ST=Utah, L=Salt Lake City, O=University of Utah, OU=School of Computing, CN=Authority/emailAddress=authority@mail.com
        Validity
            Not Before: Mar 23 03:58:04 2023 GMT
            Not After : Mar 22 03:58:04 2024 GMT
        Subject: C=US, ST=Utah, O=University of Utah, OU=School of Computing, CN=Client/emailAddress=client@mail.com
        Subject Public Key Info:
            Public Key Algorithm: rsaEncryption
                RSA Public-Key: (4096 bit)
                Modulus:
                    00:c5:b0:5f:d0:6f:0e:51:56:f0:37:00:a7:7e:f0:
                    68:d4:0b:ba:06:16:bc:f4:ac:ca:bd:1f:ec:a6:15:
                    0d:90:d9:6f:d6:b0:68:1b:f7:38:32:fb:c6:9d:d8:
                    2f:6f:2e:ef:0a:d5:76:fe:79:8b:b3:f3:7c:a3:26:
                    aa:fa:0c:1b:26:30:d2:f0:2b:c8:26:69:51:07:b5:
                    03:4a:43:38:4c:56:ce:59:13:58:98:1d:a6:4f:a7:
                    ab:cd:22:f0:3f:28:52:12:2f:c9:7d:29:21:51:b3:
                    cf:84:c6:3d:d3:fc:80:4a:ce:32:30:86:50:a9:15:
                    b0:39:e9:2b:c9:b4:f0:80:14:39:92:59:dc:b6:a9:
                    3c:80:fc:30:31:70:e9:1b:0f:c5:9e:e4:9c:2c:8f:
                    e6:9e:3e:61:78:ef:f4:81:cc:61:ff:a4:3f:53:97:
                    34:d8:45:8d:f1:2f:53:08:e6:99:31:66:5e:65:70:
                    7b:f4:5a:af:2b:4c:11:1f:c6:1c:7a:18:53:9e:71:
                    b4:49:0d:1e:6a:3d:17:d5:80:3b:2e:12:bf:39:bc:
                    74:d5:2f:7c:ce:92:cc:80:c2:e4:91:74:27:9a:55:
                    07:48:e7:fe:7a:74:db:70:65:59:bb:6f:65:34:e0:
                    b3:cf:fe:60:bd:15:44:13:0d:ff:a5:cd:af:79:86:
                    fd:d3:07:80:c4:9c:69:c0:e1:d3:bf:a6:23:98:69:
                    da:da:c9:96:84:b7:2c:49:bd:ab:ea:a6:d8:04:eb:
                    cc:4d:b4:2c:67:cb:1d:b1:c9:4d:95:b5:d2:6a:72:
                    dd:4f:20:c4:17:e0:fd:fa:33:ba:64:7a:1a:26:d3:
                    56:cc:63:f8:8a:70:74:e4:3a:e2:80:8c:5a:b1:28:
                    09:16:66:b6:1b:be:e6:34:34:03:29:9d:0e:34:34:
                    0e:bb:68:f2:ba:18:7b:a4:4b:11:91:6c:17:89:54:
                    36:4d:00:72:9d:ec:47:80:f9:47:ae:db:20:df:49:
                    3c:5f:bc:cb:3d:d8:21:13:95:2a:14:bb:e4:2c:89:
                    8e:66:9c:f9:0c:83:e6:48:19:04:2e:72:8b:c2:80:
                    4c:fe:4f:8e:1b:a5:c3:e3:27:36:6b:41:f3:02:4c:
                    07:7c:84:76:a7:4d:e1:9e:13:fd:72:b6:8c:a0:f0:
                    3d:cf:9c:5a:d1:4b:5a:3f:8c:df:64:09:12:be:4c:
                    e3:0d:b0:69:69:fd:e3:d8:14:4d:51:26:d4:87:59:
                    ab:d2:ca:da:a2:4a:f5:69:8b:b8:fd:a3:43:11:6d:
                    37:23:82:01:b1:09:de:2a:13:b8:5f:b6:92:5f:aa:
                    c3:9b:3d:1b:15:82:b1:af:18:45:e2:0b:4a:e6:57:
                    94:27:a3
                Exponent: 65537 (0x10001)
        X509v3 extensions:
            X509v3 Basic Constraints: 
                CA:FALSE
            Netscape Comment: 
                OpenSSL Generated Certificate
            X509v3 Subject Key Identifier: 
                A4:E4:A2:9A:21:26:81:44:33:8E:CA:82:34:5B:08:47:14:67:2B:4D
            X509v3 Authority Key Identifier: 
                DirName:/C=US/ST=Utah/L=Salt Lake City/O=University of Utah/OU=School of Computing/CN=Authority/emailAddress=authority@mail.com
                serial:D8:26:70:30:B7:77:EA:F4

    Signature Algorithm: md5WithRSAEncryption
         24:25:d8:45:f9:8d:d2:23:4c:8d:b4:4b:69:cc:c9:c9:ac:84:
         19:23:a3:d4:97:dc:9c:17:c0:de:2a:ab:e0:a2:6e:b6:e2:63:
         2d:4b:58:05:55:54:4c:52:84:85:d0:0b:31:d5:98:55:5b:a9:
         24:55:fc:d5:18:3a:91:99:9e:f8:54:bf:dc:87:cc:52:1c:1e:
         80:9d:52:63:80:9d:5f:fe:4f:07:66:ed:b4:87:49:c4:84:98:
         b6:91:0d:16:4e:24:ca:c7:ea:92:e7:d6:8d:cc:0d:22:0e:e0:
         74:14:53:39:5a:ea:0e:ef:05:f1:b5:1f:f1:f1:e6:d1:00:b5:
         cb:dc:c2:da:36:c9:c5:b1:b8:e7:be:92:46:95:36:3c:07:e9:
         9b:4e:40:8a:b2:fd:4b:b0:c1:1d:21:8e:53:6b:28:44:43:d2:
         2c:00:45:cf:39:1f:b0:b8:61:c4:f8:d8:3d:c6:5c:9b:47:d1:
         45:db:42:3a:5d:75:fe:b0:3f:c0:6e:28:8e:7b:5a:84:b7:34:
         d0:be:e6:50:bc:35:a2:de:79:db:7b:5e:e2:db:ab:2c:96:cb:
         02:8c:bf:e6:2d:3a:57:8e:30:79:26:18:20:94:6c:3a:3e:4f:
         4c:8f:72:d4:34:38:0f:83:c1:22:fd:fb:46:5a:3e:f6:14:b0:
         09:a8:46:02:32:50:f8:66:61:21:c3:87:90:f2:e7:4c:a0:e8:
         2e:8e:66:26:6b:5e:3f:52:ec:38:bf:d9:29:14:ec:dd:5a:03:
         05:4e:45:be:37:26:fd:dd:a4:34:44:73:44:d0:67:29:46:95:
         03:9b:aa:7b:61:c7:72:a8:05:f2:90:a1:b9:72:fb:80:75:a6:
         9f:d9:59:5d:d5:ab:13:cd:3e:d2:42:ba:d2:5b:11:76:68:55:
         d7:10:b7:5e:e8:51:e7:17:7d:74:99:a1:01:11:7a:1c:69:f5:
         4f:b8:12:0d:b3:af:f9:0b:72:80:05:7f:53:7d:bc:c0:cf:15:
         55:3e:e4:af:de:68:0b:8b:20:95:a4:05:26:7d:86:b1:ad:8d:
         c7:c8:ac:69:98:a6:d3:5e:71:15:83:5e:7d:d2:fa:15:c1:5a:
         c6:f3:fa:c0:21:b0:31:61:e5:79:38:eb:a5:67:bf:61:01:cf:
         05:ce:02:b1:8a:bb:56:12:d4:13:8d:65:d6:e6:43:6d:a6:05:
         04:07:d4:83:0b:5b:76:1c:8e:7c:bc:74:a5:e4:8f:4c:40:7c:
         e0:e1:3b:00:37:49:ef:77:15:64:f4:5a:69:0f:89:1e:cf:64:
         95:0e:f1:0d:9a:ee:35:11:d5:63:2c:b9:46:65:c6:bd:06:8c:
         74:d9:0e:af:e5:ff:5d:ed
-----BEGIN CERTIFICATE-----
MIIG1DCCBLygAwIBAgICEAEwDQYJKoZIhvcNAQEEBQAwgacxCzAJBgNVBAYTAlVT
MQ0wCwYDVQQIDARVdGFoMRcwFQYDVQQHDA5TYWx0IExha2UgQ2l0eTEbMBkGA1UE
CgwSVW5pdmVyc2l0eSBvZiBVdGFoMRwwGgYDVQQLDBNTY2hvb2wgb2YgQ29tcHV0
aW5nMRIwEAYDVQQDDAlBdXRob3JpdHkxITAfBgkqhkiG9w0BCQEWEmF1dGhvcml0
eUBtYWlsLmNvbTAeFw0yMzAzMjMwMzU4MDRaFw0yNDAzMjIwMzU4MDRaMIGIMQsw
CQYDVQQGEwJVUzENMAsGA1UECAwEVXRhaDEbMBkGA1UECgwSVW5pdmVyc2l0eSBv
ZiBVdGFoMRwwGgYDVQQLDBNTY2hvb2wgb2YgQ29tcHV0aW5nMQ8wDQYDVQQDDAZD
bGllbnQxHjAcBgkqhkiG9w0BCQEWD2NsaWVudEBtYWlsLmNvbTCCAiIwDQYJKoZI
hvcNAQEBBQADggIPADCCAgoCggIBAMWwX9BvDlFW8DcAp37waNQLugYWvPSsyr0f
7KYVDZDZb9awaBv3ODL7xp3YL28u7wrVdv55i7PzfKMmqvoMGyYw0vAryCZpUQe1
A0pDOExWzlkTWJgdpk+nq80i8D8oUhIvyX0pIVGzz4TGPdP8gErOMjCGUKkVsDnp
K8m08IAUOZJZ3LapPID8MDFw6RsPxZ7knCyP5p4+YXjv9IHMYf+kP1OXNNhFjfEv
UwjmmTFmXmVwe/RarytMER/GHHoYU55xtEkNHmo9F9WAOy4Svzm8dNUvfM6SzIDC
5JF0J5pVB0jn/np023BlWbtvZTTgs8/+YL0VRBMN/6XNr3mG/dMHgMScacDh07+m
I5hp2trJloS3LEm9q+qm2ATrzE20LGfLHbHJTZW10mpy3U8gxBfg/fozumR6GibT
Vsxj+IpwdOQ64oCMWrEoCRZmthu+5jQ0AymdDjQ0Drto8roYe6RLEZFsF4lUNk0A
cp3sR4D5R67bIN9JPF+8yz3YIROVKhS75CyJjmac+QyD5kgZBC5yi8KATP5Pjhul
w+MnNmtB8wJMB3yEdqdN4Z4T/XK2jKDwPc+cWtFLWj+M32QJEr5M4w2waWn949gU
TVEm1IdZq9LK2qJK9WmLuP2jQxFtNyOCAbEJ3ioTuF+2kl+qw5s9GxWCsa8YReIL
SuZXlCejAgMBAAGjggElMIIBITAJBgNVHRMEAjAAMCwGCWCGSAGG+EIBDQQfFh1P
cGVuU1NMIEdlbmVyYXRlZCBDZXJ0aWZpY2F0ZTAdBgNVHQ4EFgQUpOSimiEmgUQz
jsqCNFsIRxRnK00wgcYGA1UdIwSBvjCBu6GBraSBqjCBpzELMAkGA1UEBhMCVVMx
DTALBgNVBAgMBFV0YWgxFzAVBgNVBAcMDlNhbHQgTGFrZSBDaXR5MRswGQYDVQQK
DBJVbml2ZXJzaXR5IG9mIFV0YWgxHDAaBgNVBAsME1NjaG9vbCBvZiBDb21wdXRp
bmcxEjAQBgNVBAMMCUF1dGhvcml0eTEhMB8GCSqGSIb3DQEJARYSYXV0aG9yaXR5
QG1haWwuY29tggkA2CZwMLd36vQwDQYJKoZIhvcNAQEEBQADggIBACQl2EX5jdIj
TI20S2nMycmshBkjo9SX3JwXwN4qq+CibrbiYy1LWAVVVExShIXQCzHVmFVbqSRV
/NUYOpGZnvhUv9yHzFIcHoCdUmOAnV/+Twdm7bSHScSEmLaRDRZOJMrH6pLn1o3M
DSIO4HQUUzla6g7vBfG1H/Hx5tEAtcvcwto2ycWxuOe+kkaVNjwH6ZtOQIqy/Uuw
wR0hjlNrKERD0iwARc85H7C4YcT42D3GXJtH0UXbQjpddf6wP8BuKI57WoS3NNC+
5lC8NaLeedt7XuLbqyyWywKMv+YtOleOMHkmGCCUbDo+T0yPctQ0OA+DwSL9+0Za
PvYUsAmoRgIyUPhmYSHDh5Dy50yg6C6OZiZrXj9S7Di/2SkU7N1aAwVORb43Jv3d
pDREc0TQZylGlQObqnthx3KoBfKQobly+4B1pp/ZWV3VqxPNPtJCutJbEXZoVdcQ
t17oUecXfXSZoQERehxp9U+4Eg2zr/kLcoAFf1N9vMDPFVU+5K/eaAuLIJWkBSZ9
hrGtjcfIrGmYptNecRWDXn3S+hXBWsbz+sAhsDFh5Xk466Vnv2EBzwXOArGKu1YS
1BONZdbmQ22mBQQH1IMLW3Ycjny8dKXkj0xAfODhOwA3Se93FWT0WmkPiR7PZJUO
8Q2a7jUR1WMsuUZlxr0GjHTZDq/l/13t
-----END CERTIFICATE-----
